target datalayout = "e-m:e-p270:32:32-p271:32:32-p272:64:64-i64:64-i128:128-f80:128-n8:16:32:64-S128"
target triple = "x86_64-pc-linux-gnu"

%struct.tlsa_field = type { ptr, ptr, ptr }

@.str.396 = private unnamed_addr constant [27 x i8] c"../openssl/apps/s_client.c\00", align 1
@bio_err = external global ptr, align 8
@prog = internal global ptr null, align 8
@tlsa_import_rr.usage = internal global i8 0, align 1
@tlsa_import_rr.selector = internal global i8 0, align 1
@tlsa_import_rr.mtype = internal global i8 0, align 1
@tlsa_import_rr.data = internal global ptr null, align 8
@.str.578 = private unnamed_addr constant [39 x i8] c"%s: warning: bad TLSA %s field in: %s\0A\00", align 1
@.str.579 = private unnamed_addr constant [39 x i8] c"%s: warning: unusable TLSA rrdata: %s\0A\00", align 1
@.str.580 = private unnamed_addr constant [44 x i8] c"%s: warning: error loading TLSA rrdata: %s\0A\00", align 1

; Function Attrs: nounwind uwtable
define internal i32 @tlsa_import_rr(ptr noundef %0, ptr noundef %1) #0 {
  %3 = alloca i32, align 4
  %4 = alloca ptr, align 8
  %5 = alloca ptr, align 8
  %6 = alloca ptr, align 8
  %7 = alloca i32, align 4
  %8 = alloca ptr, align 8
  %9 = alloca i64, align 8
  %10 = alloca i32, align 4
  store ptr %0, ptr %4, align 8, !tbaa !13
  store ptr %1, ptr %5, align 8, !tbaa !29
  call void @llvm.lifetime.start.p0(i64 8, ptr %6) #10
  call void @llvm.lifetime.start.p0(i64 4, ptr %7) #10
  call void @llvm.lifetime.start.p0(i64 8, ptr %8) #10
  %11 = load ptr, ptr %5, align 8, !tbaa !29
  store ptr %11, ptr %8, align 8, !tbaa !29
  call void @llvm.lifetime.start.p0(i64 8, ptr %9) #10
  store i64 0, ptr %9, align 8, !tbaa !35
  store ptr @tlsa_import_rr.tlsa_fields, ptr %6, align 8, !tbaa !153
  br label %12

12:                                               ; preds = %35, %2
  %13 = load ptr, ptr %6, align 8, !tbaa !153
  %14 = getelementptr inbounds nuw %struct.tlsa_field, ptr %13, i32 0, i32 0
  %15 = load ptr, ptr %14, align 8, !tbaa !155
  %16 = icmp ne ptr %15, null
  br i1 %16, label %17, label %38

17:                                               ; preds = %12
  %18 = load ptr, ptr %6, align 8, !tbaa !153
  %19 = getelementptr inbounds nuw %struct.tlsa_field, ptr %18, i32 0, i32 2
  %20 = load ptr, ptr %19, align 8, !tbaa !157
  %21 = load ptr, ptr %6, align 8, !tbaa !153
  %22 = getelementptr inbounds nuw %struct.tlsa_field, ptr %21, i32 0, i32 0
  %23 = load ptr, ptr %22, align 8, !tbaa !155
  %24 = call i64 %20(ptr noundef %8, ptr noundef %23)
  store i64 %24, ptr %9, align 8, !tbaa !35
  %25 = icmp sle i64 %24, 0
  br i1 %25, label %26, label %34

26:                                               ; preds = %17
  %27 = load ptr, ptr @bio_err, align 8, !tbaa !40
  %28 = load ptr, ptr @prog, align 8, !tbaa !29
  %29 = load ptr, ptr %6, align 8, !tbaa !153
  %30 = getelementptr inbounds nuw %struct.tlsa_field, ptr %29, i32 0, i32 1
  %31 = load ptr, ptr %30, align 8, !tbaa !158
  %32 = load ptr, ptr %5, align 8, !tbaa !29
  %33 = call i32 (ptr, ptr, ...) @BIO_printf(ptr noundef %27, ptr noundef @.str.578, ptr noundef %28, ptr noundef %31, ptr noundef %32)
  store i32 0, ptr %3, align 4
  store i32 1, ptr %10, align 4
  br label %66

34:                                               ; preds = %17
  br label %35

35:                                               ; preds = %34
  %36 = load ptr, ptr %6, align 8, !tbaa !153
  %37 = getelementptr inbounds nuw %struct.tlsa_field, ptr %36, i32 1
  store ptr %37, ptr %6, align 8, !tbaa !153
  br label %12, !llvm.loop !159

38:                                               ; preds = %12
  %39 = load ptr, ptr %4, align 8, !tbaa !13
  %40 = load i8, ptr @tlsa_import_rr.usage, align 1, !tbaa !39
  %41 = load i8, ptr @tlsa_import_rr.selector, align 1, !tbaa !39
  %42 = load i8, ptr @tlsa_import_rr.mtype, align 1, !tbaa !39
  %43 = load ptr, ptr @tlsa_import_rr.data, align 8, !tbaa !29
  %44 = load i64, ptr %9, align 8, !tbaa !35
  %45 = call i32 @SSL_dane_tlsa_add(ptr noundef %39, i8 noundef zeroext %40, i8 noundef zeroext %41, i8 noundef zeroext %42, ptr noundef %43, i64 noundef %44)
  store i32 %45, ptr %7, align 4, !tbaa !4
  %46 = load ptr, ptr @tlsa_import_rr.data, align 8, !tbaa !29
  call void @CRYPTO_free(ptr noundef %46, ptr noundef @.str.396, i32 noundef 445)
  %47 = load i32, ptr %7, align 4, !tbaa !4
  %48 = icmp eq i32 %47, 0
  br i1 %48, label %49, label %55

49:                                               ; preds = %38
  %50 = load ptr, ptr @bio_err, align 8, !tbaa !40
  call void @ERR_print_errors(ptr noundef %50)
  %51 = load ptr, ptr @bio_err, align 8, !tbaa !40
  %52 = load ptr, ptr @prog, align 8, !tbaa !29
  %53 = load ptr, ptr %5, align 8, !tbaa !29
  %54 = call i32 (ptr, ptr, ...) @BIO_printf(ptr noundef %51, ptr noundef @.str.579, ptr noundef %52, ptr noundef %53)
  store i32 0, ptr %3, align 4
  store i32 1, ptr %10, align 4
  br label %66

55:                                               ; preds = %38
  %56 = load i32, ptr %7, align 4, !tbaa !4
  %57 = icmp slt i32 %56, 0
  br i1 %57, label %58, label %64

58:                                               ; preds = %55
  %59 = load ptr, ptr @bio_err, align 8, !tbaa !40
  call void @ERR_print_errors(ptr noundef %59)
  %60 = load ptr, ptr @bio_err, align 8, !tbaa !40
  %61 = load ptr, ptr @prog, align 8, !tbaa !29
  %62 = load ptr, ptr %5, align 8, !tbaa !29
  %63 = call i32 (ptr, ptr, ...) @BIO_printf(ptr noundef %60, ptr noundef @.str.580, ptr noundef %61, ptr noundef %62)
  store i32 0, ptr %3, align 4
  store i32 1, ptr %10, align 4
  br label %66

64:                                               ; preds = %55
  %65 = load i32, ptr %7, align 4, !tbaa !4
  store i32 %65, ptr %3, align 4
  store i32 1, ptr %10, align 4
  br label %66

66:                                               ; preds = %64, %58, %49, %26
  call void @llvm.lifetime.end.p0(i64 8, ptr %9) #10
  call void @llvm.lifetime.end.p0(i64 8, ptr %8) #10
  call void @llvm.lifetime.end.p0(i64 4, ptr %7) #10
  call void @llvm.lifetime.end.p0(i64 8, ptr %6) #10
  %67 = load i32, ptr %3, align 4
  ret i32 %67
}

; Function Attrs: inlinehint nounwind uwtable
define internal ptr @ossl_check_const_OPENSSL_STRING_sk_type(ptr noundef %0) #6 {
  %2 = alloca ptr, align 8
  store ptr %0, ptr %2, align 8, !tbaa !27
  %3 = load ptr, ptr %2, align 8, !tbaa !27
  ret ptr %3
}

; Function Attrs: nounwind uwtable
define internal i32 @tlsa_import_rrset(ptr noundef %0, ptr noundef %1) #0 {
  %3 = alloca ptr, align 8
  %4 = alloca ptr, align 8
  %5 = alloca i32, align 4
  %6 = alloca i32, align 4
  %7 = alloca i32, align 4
  %8 = alloca ptr, align 8
  store ptr %0, ptr %3, align 8, !tbaa !13
  store ptr %1, ptr %4, align 8, !tbaa !27
  call void @llvm.lifetime.start.p0(i64 4, ptr %5) #10
  %9 = load ptr, ptr %4, align 8, !tbaa !27
  %10 = call ptr @ossl_check_const_OPENSSL_STRING_sk_type(ptr noundef %9)
  %11 = call i32 @OPENSSL_sk_num(ptr noundef %10)
  store i32 %11, ptr %5, align 4, !tbaa !4
  call void @llvm.lifetime.start.p0(i64 4, ptr %6) #10
  store i32 0, ptr %6, align 4, !tbaa !4
  call void @llvm.lifetime.start.p0(i64 4, ptr %7) #10
  store i32 0, ptr %7, align 4, !tbaa !4
  br label %12

12:                                               ; preds = %29, %2
  %13 = load i32, ptr %7, align 4, !tbaa !4
  %14 = load i32, ptr %5, align 4, !tbaa !4
  %15 = icmp slt i32 %13, %14
  br i1 %15, label %16, label %32

16:                                               ; preds = %12
  call void @llvm.lifetime.start.p0(i64 8, ptr %8) #10
  %17 = load ptr, ptr %4, align 8, !tbaa !27
  %18 = call ptr @ossl_check_const_OPENSSL_STRING_sk_type(ptr noundef %17)
  %19 = load i32, ptr %7, align 4, !tbaa !4
  %20 = call ptr @OPENSSL_sk_value(ptr noundef %18, i32 noundef %19)
  store ptr %20, ptr %8, align 8, !tbaa !29
  %21 = load ptr, ptr %3, align 8, !tbaa !13
  %22 = load ptr, ptr %8, align 8, !tbaa !29
  %23 = call i32 @tlsa_import_rr(ptr noundef %21, ptr noundef %22)
  %24 = icmp sgt i32 %23, 0
  br i1 %24, label %25, label %28

25:                                               ; preds = %16
  %26 = load i32, ptr %6, align 4, !tbaa !4
  %27 = add nsw i32 %26, 1
  store i32 %27, ptr %6, align 4, !tbaa !4
  br label %28

28:                                               ; preds = %25, %16
  call void @llvm.lifetime.end.p0(i64 8, ptr %8) #10
  br label %29

29:                                               ; preds = %28
  %30 = load i32, ptr %7, align 4, !tbaa !4
  %31 = add nsw i32 %30, 1
  store i32 %31, ptr %7, align 4, !tbaa !4
  br label %12, !llvm.loop !124

32:                                               ; preds = %12
  %33 = load i32, ptr %6, align 4, !tbaa !4
  %34 = icmp sgt i32 %33, 0
  %35 = zext i1 %34 to i32
  call void @llvm.lifetime.end.p0(i64 4, ptr %7) #10
  call void @llvm.lifetime.end.p0(i64 4, ptr %6) #10
  call void @llvm.lifetime.end.p0(i64 4, ptr %5) #10
  ret i32 %35
}