; Function Attrs: nounwind uwtable
define internal fastcc range(i32 0, 2) i32 @tlsa_import_rrset(ptr noundef nonnull %0, ptr noundef nonnull %1) unnamed_addr #0 {
  %3 = alloca ptr, align 8
  %4 = tail call i32 @OPENSSL_sk_num(ptr noundef nonnull %1) #15
  %5 = icmp sgt i32 %4, 0
  br i1 %5, label %.lr.ph, label %._crit_edge

.lr.ph:                                           ; preds = %2, %44
  %.016 = phi i32 [ %45, %44 ], [ 0, %2 ]
  %.0915 = phi i32 [ %46, %44 ], [ 0, %2 ]
  %6 = call ptr @OPENSSL_sk_value(ptr noundef nonnull %1, i32 noundef %.0915) #15
  call void @llvm.lifetime.start.p0(i64 8, ptr nonnull %3) #15
  store ptr %6, ptr %3, align 8, !tbaa !11
  br label %7

7:                                                ; preds = %19, %.lr.ph
  %8 = phi ptr [ @tlsa_import_rr.usage, %.lr.ph ], [ %21, %19 ]
  %.01521.i = phi ptr [ @tlsa_import_rr.tlsa_fields, %.lr.ph ], [ %20, %19 ]
  %9 = getelementptr inbounds nuw i8, ptr %.01521.i, i64 16
  %10 = load ptr, ptr %9, align 8, !tbaa !79
  %11 = call i64 %10(ptr noundef nonnull %3, ptr noundef nonnull %8) #15
  %12 = icmp slt i64 %11, 1
  br i1 %12, label %13, label %19

13:                                               ; preds = %7
  %14 = load ptr, ptr @bio_err, align 8, !tbaa !19
  %15 = load ptr, ptr @prog, align 8, !tbaa !11
  %16 = getelementptr inbounds nuw i8, ptr %.01521.i, i64 8
  %17 = load ptr, ptr %16, align 8, !tbaa !81
  %18 = call i32 (ptr, ptr, ...) @BIO_printf(ptr noundef %14, ptr noundef nonnull @.str.578, ptr noundef %15, ptr noundef %17, ptr noundef %6) #15
  br label %43

19:                                               ; preds = %7
  %20 = getelementptr inbounds nuw i8, ptr %.01521.i, i64 24
  %21 = load ptr, ptr %20, align 8, !tbaa !82
  %.not.i = icmp eq ptr %21, null
  br i1 %.not.i, label %22, label %7, !llvm.loop !83

22:                                               ; preds = %19
  %23 = load i8, ptr @tlsa_import_rr.usage, align 1, !tbaa !25
  %24 = load i8, ptr @tlsa_import_rr.selector, align 1, !tbaa !25
  %25 = load i8, ptr @tlsa_import_rr.mtype, align 1, !tbaa !25
  %26 = load ptr, ptr @tlsa_import_rr.data, align 8, !tbaa !11
  %27 = call i32 @SSL_dane_tlsa_add(ptr noundef nonnull %0, i8 noundef zeroext %23, i8 noundef zeroext %24, i8 noundef zeroext %25, ptr noundef %26, i64 noundef %11) #15
  %28 = load ptr, ptr @tlsa_import_rr.data, align 8, !tbaa !11
  call void @CRYPTO_free(ptr noundef %28, ptr noundef nonnull @.str.396, i32 noundef 445) #15
  %29 = icmp eq i32 %27, 0
  br i1 %29, label %30, label %35

30:                                               ; preds = %22
  %31 = load ptr, ptr @bio_err, align 8, !tbaa !19
  call void @ERR_print_errors(ptr noundef %31) #15
  %32 = load ptr, ptr @bio_err, align 8, !tbaa !19
  %33 = load ptr, ptr @prog, align 8, !tbaa !11
  %34 = call i32 (ptr, ptr, ...) @BIO_printf(ptr noundef %32, ptr noundef nonnull @.str.579, ptr noundef %33, ptr noundef %6) #15
  br label %43

35:                                               ; preds = %22
  %36 = icmp slt i32 %27, 0
  br i1 %36, label %37, label %tlsa_import_rr.exit

37:                                               ; preds = %35
  %38 = load ptr, ptr @bio_err, align 8, !tbaa !19
  call void @ERR_print_errors(ptr noundef %38) #15
  %39 = load ptr, ptr @bio_err, align 8, !tbaa !19
  %40 = load ptr, ptr @prog, align 8, !tbaa !11
  %41 = call i32 (ptr, ptr, ...) @BIO_printf(ptr noundef %39, ptr noundef nonnull @.str.580, ptr noundef %40, ptr noundef %6) #15
  br label %43

tlsa_import_rr.exit:                              ; preds = %35
  call void @llvm.lifetime.end.p0(i64 8, ptr nonnull %3) #15
  %42 = add nsw i32 %.016, 1
  br label %44

43:                                               ; preds = %13, %30, %37
  call void @llvm.lifetime.end.p0(i64 8, ptr nonnull %3) #15
  br label %44

44:                                               ; preds = %tlsa_import_rr.exit, %43
  %45 = phi i32 [ %.016, %43 ], [ %42, %tlsa_import_rr.exit ]
  %46 = add nuw nsw i32 %.0915, 1
  %exitcond.not = icmp eq i32 %46, %4
  br i1 %exitcond.not, label %._crit_edge.loopexit, label %.lr.ph, !llvm.loop !84

._crit_edge.loopexit:                             ; preds = %44
  %47 = icmp sgt i32 %45, 0
  %48 = zext i1 %47 to i32
  br label %._crit_edge

._crit_edge:                                      ; preds = %._crit_edge.loopexit, %2
  %.0.lcssa = phi i32 [ 0, %2 ], [ %48, %._crit_edge.loopexit ]
  ret i32 %.0.lcssa
}